target datalayout = "e-m:e-p270:32:32-p271:32:32-p272:64:64-i64:64-i128:128-f80:128-n8:16:32:64-S128"
target triple = "x86_64-pc-linux-gnu"

%struct.AVRational = type { i32, i32 }
%struct.AVChannelLayout = type { i32, i32, %union.anon.1, ptr }
%union.anon.1 = type { i64 }
%struct.TiffContext = type { ptr, ptr, %struct.GetByteContext, ptr, ptr, ptr, i32, i16, i32, i32, i32, i32, i32, i32, [256 x i32], i32, i32, i32, i32, i32, [2 x i32], i32, i32, i32, [4 x i32], i32, i32, i32, i32, [4 x i8], [4 x float], [4 x float], [4 x float], [3 x [4 x float]], [4 x [4 x float]], [4 x float], [4 x float], i32, [65536 x i16], i32, i16, i32, i32, i32, i32, i32, i32, i32, i32, ptr, i32, i32, i32, i32, i32, i32, ptr, i32, ptr, i32, i32, ptr }
%struct.GetByteContext = type { ptr, ptr, ptr }
%struct.AVFrame = type { [8 x ptr], [8 x i32], ptr, i32, i32, i32, i32, i32, %struct.AVRational, i64, i64, %struct.AVRational, i32, ptr, i32, i32, [8 x ptr], ptr, i32, ptr, i32, i32, i32, i32, i32, i32, i32, i64, ptr, i32, ptr, ptr, i64, i64, i64, i64, ptr, %struct.AVChannelLayout, i64 }

; Function Attrs: nounwind uwtable
define internal void @unpack_yuv(ptr noundef %0, ptr noundef %1, ptr noundef %2, i32 noundef %3) #1 {
  %5 = alloca ptr, align 8
  %6 = alloca ptr, align 8
  %7 = alloca ptr, align 8
  %8 = alloca i32, align 4
  %9 = alloca i32, align 4
  %10 = alloca i32, align 4
  %11 = alloca i32, align 4
  %12 = alloca i32, align 4
  %13 = alloca ptr, align 8
  %14 = alloca ptr, align 8
  store ptr %0, ptr %5, align 8, !tbaa !29
  store ptr %1, ptr %6, align 8, !tbaa !49
  store ptr %2, ptr %7, align 8, !tbaa !92
  store i32 %3, ptr %8, align 4, !tbaa !39
  call void @llvm.lifetime.start.p0(i64 4, ptr %9) #13
  call void @llvm.lifetime.start.p0(i64 4, ptr %10) #13
  call void @llvm.lifetime.start.p0(i64 4, ptr %11) #13
  call void @llvm.lifetime.start.p0(i64 4, ptr %12) #13
  %15 = load ptr, ptr %5, align 8, !tbaa !29
  %16 = getelementptr inbounds nuw %struct.TiffContext, ptr %15, i32 0, i32 10
  %17 = load i32, ptr %16, align 8, !tbaa !31
  %18 = sub nsw i32 %17, 1
  %19 = load ptr, ptr %5, align 8, !tbaa !29
  %20 = getelementptr inbounds nuw %struct.TiffContext, ptr %19, i32 0, i32 20
  %21 = getelementptr inbounds [2 x i32], ptr %20, i64 0, i64 0
  %22 = load i32, ptr %21, align 4, !tbaa !39
  %23 = sdiv i32 %18, %22
  %24 = add nsw i32 %23, 1
  store i32 %24, ptr %12, align 4, !tbaa !39
  call void @llvm.lifetime.start.p0(i64 8, ptr %13) #13
  %25 = load ptr, ptr %6, align 8, !tbaa !49
  %26 = getelementptr inbounds nuw %struct.AVFrame, ptr %25, i32 0, i32 0
  %27 = getelementptr inbounds [8 x ptr], ptr %26, i64 0, i64 1
  %28 = load ptr, ptr %27, align 8, !tbaa !92
  %29 = load i32, ptr %8, align 4, !tbaa !39
  %30 = load ptr, ptr %5, align 8, !tbaa !29
  %31 = getelementptr inbounds nuw %struct.TiffContext, ptr %30, i32 0, i32 20
  %32 = getelementptr inbounds [2 x i32], ptr %31, i64 0, i64 1
  %33 = load i32, ptr %32, align 4, !tbaa !39
  %34 = sdiv i32 %29, %33
  %35 = load ptr, ptr %6, align 8, !tbaa !49
  %36 = getelementptr inbounds nuw %struct.AVFrame, ptr %35, i32 0, i32 1
  %37 = getelementptr inbounds [8 x i32], ptr %36, i64 0, i64 1
  %38 = load i32, ptr %37, align 4, !tbaa !39
  %39 = mul nsw i32 %34, %38
  %40 = sext i32 %39 to i64
  %41 = getelementptr inbounds i8, ptr %28, i64 %40
  store ptr %41, ptr %13, align 8, !tbaa !92
  call void @llvm.lifetime.start.p0(i64 8, ptr %14) #13
  %42 = load ptr, ptr %6, align 8, !tbaa !49
  %43 = getelementptr inbounds nuw %struct.AVFrame, ptr %42, i32 0, i32 0
  %44 = getelementptr inbounds [8 x ptr], ptr %43, i64 0, i64 2
  %45 = load ptr, ptr %44, align 8, !tbaa !92
  %46 = load i32, ptr %8, align 4, !tbaa !39
  %47 = load ptr, ptr %5, align 8, !tbaa !29
  %48 = getelementptr inbounds nuw %struct.TiffContext, ptr %47, i32 0, i32 20
  %49 = getelementptr inbounds [2 x i32], ptr %48, i64 0, i64 1
  %50 = load i32, ptr %49, align 4, !tbaa !39
  %51 = sdiv i32 %46, %50
  %52 = load ptr, ptr %6, align 8, !tbaa !49
  %53 = getelementptr inbounds nuw %struct.AVFrame, ptr %52, i32 0, i32 1
  %54 = getelementptr inbounds [8 x i32], ptr %53, i64 0, i64 2
  %55 = load i32, ptr %54, align 8, !tbaa !39
  %56 = mul nsw i32 %51, %55
  %57 = sext i32 %56 to i64
  %58 = getelementptr inbounds i8, ptr %45, i64 %57
  store ptr %58, ptr %14, align 8, !tbaa !92
  %59 = load ptr, ptr %5, align 8, !tbaa !29
  %60 = getelementptr inbounds nuw %struct.TiffContext, ptr %59, i32 0, i32 10
  %61 = load i32, ptr %60, align 8, !tbaa !31
  %62 = load ptr, ptr %5, align 8, !tbaa !29
  %63 = getelementptr inbounds nuw %struct.TiffContext, ptr %62, i32 0, i32 20
  %64 = getelementptr inbounds [2 x i32], ptr %63, i64 0, i64 0
  %65 = load i32, ptr %64, align 4, !tbaa !39
  %66 = srem i32 %61, %65
  %67 = icmp ne i32 %66, 0
  br i1 %67, label %78, label %68

68:                                               ; preds = %4
  %69 = load ptr, ptr %5, align 8, !tbaa !29
  %70 = getelementptr inbounds nuw %struct.TiffContext, ptr %69, i32 0, i32 11
  %71 = load i32, ptr %70, align 4, !tbaa !38
  %72 = load ptr, ptr %5, align 8, !tbaa !29
  %73 = getelementptr inbounds nuw %struct.TiffContext, ptr %72, i32 0, i32 20
  %74 = getelementptr inbounds [2 x i32], ptr %73, i64 0, i64 1
  %75 = load i32, ptr %74, align 4, !tbaa !39
  %76 = srem i32 %71, %75
  %77 = icmp ne i32 %76, 0
  br i1 %77, label %78, label %185

78:                                               ; preds = %68, %4
  store i32 0, ptr %9, align 4, !tbaa !39
  br label %79

79:                                               ; preds = %181, %78
  %80 = load i32, ptr %9, align 4, !tbaa !39
  %81 = load i32, ptr %12, align 4, !tbaa !39
  %82 = icmp slt i32 %80, %81
  br i1 %82, label %83, label %184

83:                                               ; preds = %79
  store i32 0, ptr %10, align 4, !tbaa !39
  br label %84

84:                                               ; preds = %167, %83
  %85 = load i32, ptr %10, align 4, !tbaa !39
  %86 = load ptr, ptr %5, align 8, !tbaa !29
  %87 = getelementptr inbounds nuw %struct.TiffContext, ptr %86, i32 0, i32 20
  %88 = getelementptr inbounds [2 x i32], ptr %87, i64 0, i64 1
  %89 = load i32, ptr %88, align 4, !tbaa !39
  %90 = icmp slt i32 %85, %89
  br i1 %90, label %91, label %170

91:                                               ; preds = %84
  store i32 0, ptr %11, align 4, !tbaa !39
  br label %92

92:                                               ; preds = %163, %91
  %93 = load i32, ptr %11, align 4, !tbaa !39
  %94 = load ptr, ptr %5, align 8, !tbaa !29
  %95 = getelementptr inbounds nuw %struct.TiffContext, ptr %94, i32 0, i32 20
  %96 = getelementptr inbounds [2 x i32], ptr %95, i64 0, i64 0
  %97 = load i32, ptr %96, align 4, !tbaa !39
  %98 = icmp slt i32 %93, %97
  br i1 %98, label %99, label %166

99:                                               ; preds = %92
  %100 = load ptr, ptr %7, align 8, !tbaa !92
  %101 = getelementptr inbounds nuw i8, ptr %100, i32 1
  store ptr %101, ptr %7, align 8, !tbaa !92
  %102 = load i8, ptr %100, align 1, !tbaa !126
  %103 = load ptr, ptr %6, align 8, !tbaa !49
  %104 = getelementptr inbounds nuw %struct.AVFrame, ptr %103, i32 0, i32 0
  %105 = getelementptr inbounds [8 x ptr], ptr %104, i64 0, i64 0
  %106 = load ptr, ptr %105, align 8, !tbaa !92
  %107 = load i32, ptr %8, align 4, !tbaa !39
  %108 = load i32, ptr %10, align 4, !tbaa !39
  %109 = add nsw i32 %107, %108
  %110 = load ptr, ptr %5, align 8, !tbaa !29
  %111 = getelementptr inbounds nuw %struct.TiffContext, ptr %110, i32 0, i32 11
  %112 = load i32, ptr %111, align 4, !tbaa !38
  %113 = sub nsw i32 %112, 1
  %114 = icmp sgt i32 %109, %113
  br i1 %114, label %115, label %120

115:                                              ; preds = %99
  %116 = load ptr, ptr %5, align 8, !tbaa !29
  %117 = getelementptr inbounds nuw %struct.TiffContext, ptr %116, i32 0, i32 11
  %118 = load i32, ptr %117, align 4, !tbaa !38
  %119 = sub nsw i32 %118, 1
  br label %124

120:                                              ; preds = %99
  %121 = load i32, ptr %8, align 4, !tbaa !39
  %122 = load i32, ptr %10, align 4, !tbaa !39
  %123 = add nsw i32 %121, %122
  br label %124

124:                                              ; preds = %120, %115
  %125 = phi i32 [ %119, %115 ], [ %123, %120 ]
  %126 = load ptr, ptr %6, align 8, !tbaa !49
  %127 = getelementptr inbounds nuw %struct.AVFrame, ptr %126, i32 0, i32 1
  %128 = getelementptr inbounds [8 x i32], ptr %127, i64 0, i64 0
  %129 = load i32, ptr %128, align 8, !tbaa !39
  %130 = mul nsw i32 %125, %129
  %131 = load i32, ptr %9, align 4, !tbaa !39
  %132 = load ptr, ptr %5, align 8, !tbaa !29
  %133 = getelementptr inbounds nuw %struct.TiffContext, ptr %132, i32 0, i32 20
  %134 = getelementptr inbounds [2 x i32], ptr %133, i64 0, i64 0
  %135 = load i32, ptr %134, align 4, !tbaa !39
  %136 = mul nsw i32 %131, %135
  %137 = load i32, ptr %11, align 4, !tbaa !39
  %138 = add nsw i32 %136, %137
  %139 = load ptr, ptr %5, align 8, !tbaa !29
  %140 = getelementptr inbounds nuw %struct.TiffContext, ptr %139, i32 0, i32 10
  %141 = load i32, ptr %140, align 8, !tbaa !31
  %142 = sub nsw i32 %141, 1
  %143 = icmp sgt i32 %138, %142
  br i1 %143, label %144, label %149

144:                                              ; preds = %124
  %145 = load ptr, ptr %5, align 8, !tbaa !29
  %146 = getelementptr inbounds nuw %struct.TiffContext, ptr %145, i32 0, i32 10
  %147 = load i32, ptr %146, align 8, !tbaa !31
  %148 = sub nsw i32 %147, 1
  br label %158

149:                                              ; preds = %124
  %150 = load i32, ptr %9, align 4, !tbaa !39
  %151 = load ptr, ptr %5, align 8, !tbaa !29
  %152 = getelementptr inbounds nuw %struct.TiffContext, ptr %151, i32 0, i32 20
  %153 = getelementptr inbounds [2 x i32], ptr %152, i64 0, i64 0
  %154 = load i32, ptr %153, align 4, !tbaa !39
  %155 = mul nsw i32 %150, %154
  %156 = load i32, ptr %11, align 4, !tbaa !39
  %157 = add nsw i32 %155, %156
  br label %158

158:                                              ; preds = %149, %144
  %159 = phi i32 [ %148, %144 ], [ %157, %149 ]
  %160 = add nsw i32 %130, %159
  %161 = sext i32 %160 to i64
  %162 = getelementptr inbounds i8, ptr %106, i64 %161
  store i8 %102, ptr %162, align 1, !tbaa !126
  br label %163

163:                                              ; preds = %158
  %164 = load i32, ptr %11, align 4, !tbaa !39
  %165 = add nsw i32 %164, 1
  store i32 %165, ptr %11, align 4, !tbaa !39
  br label %92, !llvm.loop !264

166:                                              ; preds = %92
  br label %167

167:                                              ; preds = %166
  %168 = load i32, ptr %10, align 4, !tbaa !39
  %169 = add nsw i32 %168, 1
  store i32 %169, ptr %10, align 4, !tbaa !39
  br label %84, !llvm.loop !265

170:                                              ; preds = %84
  %171 = load ptr, ptr %7, align 8, !tbaa !92
  %172 = getelementptr inbounds nuw i8, ptr %171, i32 1
  store ptr %172, ptr %7, align 8, !tbaa !92
  %173 = load i8, ptr %171, align 1, !tbaa !126
  %174 = load ptr, ptr %13, align 8, !tbaa !92
  %175 = getelementptr inbounds nuw i8, ptr %174, i32 1
  store ptr %175, ptr %13, align 8, !tbaa !92
  store i8 %173, ptr %174, align 1, !tbaa !126
  %176 = load ptr, ptr %7, align 8, !tbaa !92
  %177 = getelementptr inbounds nuw i8, ptr %176, i32 1
  store ptr %177, ptr %7, align 8, !tbaa !92
  %178 = load i8, ptr %176, align 1, !tbaa !126
  %179 = load ptr, ptr %14, align 8, !tbaa !92
  %180 = getelementptr inbounds nuw i8, ptr %179, i32 1
  store ptr %180, ptr %14, align 8, !tbaa !92
  store i8 %178, ptr %179, align 1, !tbaa !126
  br label %181

181:                                              ; preds = %170
  %182 = load i32, ptr %9, align 4, !tbaa !39
  %183 = add nsw i32 %182, 1
  store i32 %183, ptr %9, align 4, !tbaa !39
  br label %79, !llvm.loop !266

184:                                              ; preds = %79
  br label %255

185:                                              ; preds = %68
  store i32 0, ptr %9, align 4, !tbaa !39
  br label %186

186:                                              ; preds = %251, %185
  %187 = load i32, ptr %9, align 4, !tbaa !39
  %188 = load i32, ptr %12, align 4, !tbaa !39
  %189 = icmp slt i32 %187, %188
  br i1 %189, label %190, label %254

190:                                              ; preds = %186
  store i32 0, ptr %10, align 4, !tbaa !39
  br label %191

191:                                              ; preds = %237, %190
  %192 = load i32, ptr %10, align 4, !tbaa !39
  %193 = load ptr, ptr %5, align 8, !tbaa !29
  %194 = getelementptr inbounds nuw %struct.TiffContext, ptr %193, i32 0, i32 20
  %195 = getelementptr inbounds [2 x i32], ptr %194, i64 0, i64 1
  %196 = load i32, ptr %195, align 4, !tbaa !39
  %197 = icmp slt i32 %192, %196
  br i1 %197, label %198, label %240

198:                                              ; preds = %191
  store i32 0, ptr %11, align 4, !tbaa !39
  br label %199

199:                                              ; preds = %233, %198
  %200 = load i32, ptr %11, align 4, !tbaa !39
  %201 = load ptr, ptr %5, align 8, !tbaa !29
  %202 = getelementptr inbounds nuw %struct.TiffContext, ptr %201, i32 0, i32 20
  %203 = getelementptr inbounds [2 x i32], ptr %202, i64 0, i64 0
  %204 = load i32, ptr %203, align 4, !tbaa !39
  %205 = icmp slt i32 %200, %204
  br i1 %205, label %206, label %236

206:                                              ; preds = %199
  %207 = load ptr, ptr %7, align 8, !tbaa !92
  %208 = getelementptr inbounds nuw i8, ptr %207, i32 1
  store ptr %208, ptr %7, align 8, !tbaa !92
  %209 = load i8, ptr %207, align 1, !tbaa !126
  %210 = load ptr, ptr %6, align 8, !tbaa !49
  %211 = getelementptr inbounds nuw %struct.AVFrame, ptr %210, i32 0, i32 0
  %212 = getelementptr inbounds [8 x ptr], ptr %211, i64 0, i64 0
  %213 = load ptr, ptr %212, align 8, !tbaa !92
  %214 = load i32, ptr %8, align 4, !tbaa !39
  %215 = load i32, ptr %10, align 4, !tbaa !39
  %216 = add nsw i32 %214, %215
  %217 = load ptr, ptr %6, align 8, !tbaa !49
  %218 = getelementptr inbounds nuw %struct.AVFrame, ptr %217, i32 0, i32 1
  %219 = getelementptr inbounds [8 x i32], ptr %218, i64 0, i64 0
  %220 = load i32, ptr %219, align 8, !tbaa !39
  %221 = mul nsw i32 %216, %220
  %222 = load i32, ptr %9, align 4, !tbaa !39
  %223 = load ptr, ptr %5, align 8, !tbaa !29
  %224 = getelementptr inbounds nuw %struct.TiffContext, ptr %223, i32 0, i32 20
  %225 = getelementptr inbounds [2 x i32], ptr %224, i64 0, i64 0
  %226 = load i32, ptr %225, align 4, !tbaa !39
  %227 = mul nsw i32 %222, %226
  %228 = add nsw i32 %221, %227
  %229 = load i32, ptr %11, align 4, !tbaa !39
  %230 = add nsw i32 %228, %229
  %231 = sext i32 %230 to i64
  %232 = getelementptr inbounds i8, ptr %213, i64 %231
  store i8 %209, ptr %232, align 1, !tbaa !126
  br label %233

233:                                              ; preds = %206
  %234 = load i32, ptr %11, align 4, !tbaa !39
  %235 = add nsw i32 %234, 1
  store i32 %235, ptr %11, align 4, !tbaa !39
  br label %199, !llvm.loop !267

236:                                              ; preds = %199
  br label %237

237:                                              ; preds = %236
  %238 = load i32, ptr %10, align 4, !tbaa !39
  %239 = add nsw i32 %238, 1
  store i32 %239, ptr %10, align 4, !tbaa !39
  br label %191, !llvm.loop !268

240:                                              ; preds = %191
  %241 = load ptr, ptr %7, align 8, !tbaa !92
  %242 = getelementptr inbounds nuw i8, ptr %241, i32 1
  store ptr %242, ptr %7, align 8, !tbaa !92
  %243 = load i8, ptr %241, align 1, !tbaa !126
  %244 = load ptr, ptr %13, align 8, !tbaa !92
  %245 = getelementptr inbounds nuw i8, ptr %244, i32 1
  store ptr %245, ptr %13, align 8, !tbaa !92
  store i8 %243, ptr %244, align 1, !tbaa !126
  %246 = load ptr, ptr %7, align 8, !tbaa !92
  %247 = getelementptr inbounds nuw i8, ptr %246, i32 1
  store ptr %247, ptr %7, align 8, !tbaa !92
  %248 = load i8, ptr %246, align 1, !tbaa !126
  %249 = load ptr, ptr %14, align 8, !tbaa !92
  %250 = getelementptr inbounds nuw i8, ptr %249, i32 1
  store ptr %250, ptr %14, align 8, !tbaa !92
  store i8 %248, ptr %249, align 1, !tbaa !126
  br label %251

251:                                              ; preds = %240
  %252 = load i32, ptr %9, align 4, !tbaa !39
  %253 = add nsw i32 %252, 1
  store i32 %253, ptr %9, align 4, !tbaa !39
  br label %186, !llvm.loop !269

254:                                              ; preds = %186
  br label %255

255:                                              ; preds = %254, %184
  call void @llvm.lifetime.end.p0(i64 8, ptr %14) #13
  call void @llvm.lifetime.end.p0(i64 8, ptr %13) #13
  call void @llvm.lifetime.end.p0(i64 4, ptr %12) #13
  call void @llvm.lifetime.end.p0(i64 4, ptr %11) #13
  call void @llvm.lifetime.end.p0(i64 4, ptr %10) #13
  call void @llvm.lifetime.end.p0(i64 4, ptr %9) #13
  ret void
}