; Function Attrs: nofree norecurse nosync nounwind memory(write, argmem: readwrite, inaccessiblemem: none) uwtable
define internal fastcc void @unpack_yuv(ptr noundef readonly captures(none) %0, ptr noundef readonly captures(none) %1, ptr noundef readonly captures(none) %2, i32 noundef %3) unnamed_addr #12 {
  %5 = getelementptr inbounds nuw i8, ptr %0, i64 80
  %6 = load i32, ptr %5, align 8, !tbaa !27
  %7 = add nsw i32 %6, -1
  %8 = getelementptr inbounds nuw i8, ptr %0, i64 1140
  %9 = load i32, ptr %8, align 4, !tbaa !36
  %10 = sdiv i32 %7, %9
  %11 = getelementptr inbounds nuw i8, ptr %1, i64 8
  %12 = load ptr, ptr %11, align 8, !tbaa !101
  %13 = getelementptr inbounds nuw i8, ptr %0, i64 1144
  %14 = load i32, ptr %13, align 4, !tbaa !36
  %15 = sdiv i32 %3, %14
  %16 = getelementptr inbounds nuw i8, ptr %1, i64 64
  %17 = getelementptr inbounds nuw i8, ptr %1, i64 68
  %18 = load i32, ptr %17, align 4, !tbaa !36
  %19 = mul nsw i32 %18, %15
  %20 = sext i32 %19 to i64
  %21 = getelementptr inbounds i8, ptr %12, i64 %20
  %22 = getelementptr inbounds nuw i8, ptr %1, i64 16
  %23 = load ptr, ptr %22, align 8, !tbaa !101
  %24 = getelementptr inbounds nuw i8, ptr %1, i64 72
  %25 = load i32, ptr %24, align 8, !tbaa !36
  %26 = mul nsw i32 %25, %15
  %27 = sext i32 %26 to i64
  %28 = getelementptr inbounds i8, ptr %23, i64 %27
  %29 = srem i32 %6, %9
  %.not = icmp eq i32 %29, 0
  br i1 %.not, label %30, label %34

30:                                               ; preds = %4
  %31 = getelementptr inbounds nuw i8, ptr %0, i64 84
  %32 = load i32, ptr %31, align 4, !tbaa !35
  %33 = srem i32 %32, %14
  %.not79 = icmp eq i32 %33, 0
  br i1 %.not79, label %.preheader85, label %34

.preheader85:                                     ; preds = %30
  %.not80111 = icmp slt i32 %10, 0
  br i1 %.not80111, label %.loopexit, label %.preheader84

34:                                               ; preds = %30, %4
  %.not8195 = icmp slt i32 %10, 0
  br i1 %.not8195, label %.loopexit, label %.preheader87.lr.ph

.preheader87.lr.ph:                               ; preds = %34
  %35 = getelementptr inbounds nuw i8, ptr %0, i64 84
  br label %.preheader87

.preheader87:                                     ; preds = %.preheader87.lr.ph, %._crit_edge93
  %.0100 = phi ptr [ %28, %.preheader87.lr.ph ], [ %74, %._crit_edge93 ]
  %.06499 = phi ptr [ %21, %.preheader87.lr.ph ], [ %71, %._crit_edge93 ]
  %.06698 = phi ptr [ %2, %.preheader87.lr.ph ], [ %72, %._crit_edge93 ]
  %.07296 = phi i32 [ 0, %.preheader87.lr.ph ], [ %75, %._crit_edge93 ]
  %36 = load i32, ptr %13, align 4, !tbaa !36
  %37 = icmp sgt i32 %36, 0
  br i1 %37, label %.preheader86.lr.ph, label %._crit_edge93

.preheader86.lr.ph:                               ; preds = %.preheader87
  %38 = load i32, ptr %8, align 4, !tbaa !36
  %39 = icmp sgt i32 %38, 0
  br i1 %39, label %.preheader86, label %._crit_edge93

.preheader86:                                     ; preds = %.preheader86.lr.ph, %._crit_edge
  %40 = phi i32 [ %65, %._crit_edge ], [ %36, %.preheader86.lr.ph ]
  %41 = phi i32 [ %66, %._crit_edge ], [ %38, %.preheader86.lr.ph ]
  %.16792 = phi ptr [ %.2.lcssa, %._crit_edge ], [ %.06698, %.preheader86.lr.ph ]
  %.07091 = phi i32 [ %67, %._crit_edge ], [ 0, %.preheader86.lr.ph ]
  %42 = icmp sgt i32 %41, 0
  br i1 %42, label %.lr.ph, label %._crit_edge

.lr.ph:                                           ; preds = %.preheader86
  %43 = add nsw i32 %.07091, %3
  br label %44

44:                                               ; preds = %.lr.ph, %44
  %45 = phi i32 [ %41, %.lr.ph ], [ %63, %44 ]
  %.290 = phi ptr [ %.16792, %.lr.ph ], [ %46, %44 ]
  %.06889 = phi i32 [ 0, %.lr.ph ], [ %62, %44 ]
  %46 = getelementptr inbounds nuw i8, ptr %.290, i64 1
  %47 = load i8, ptr %.290, align 1, !tbaa !81
  %48 = load ptr, ptr %1, align 8, !tbaa !101
  %49 = load i32, ptr %35, align 4, !tbaa !35
  %.not82 = icmp slt i32 %43, %49
  %50 = add nsw i32 %49, -1
  %51 = select i1 %.not82, i32 %43, i32 %50
  %52 = load i32, ptr %16, align 8, !tbaa !36
  %53 = mul nsw i32 %51, %52
  %54 = mul nsw i32 %45, %.07296
  %55 = add nsw i32 %54, %.06889
  %56 = load i32, ptr %5, align 8, !tbaa !27
  %.not83 = icmp slt i32 %55, %56
  %57 = add nsw i32 %56, -1
  %58 = select i1 %.not83, i32 %55, i32 %57
  %59 = add nsw i32 %58, %53
  %60 = sext i32 %59 to i64
  %61 = getelementptr inbounds i8, ptr %48, i64 %60
  store i8 %47, ptr %61, align 1, !tbaa !81
  %62 = add nuw nsw i32 %.06889, 1
  %63 = load i32, ptr %8, align 4, !tbaa !36
  %64 = icmp slt i32 %62, %63
  br i1 %64, label %44, label %._crit_edge.loopexit, !llvm.loop !257

._crit_edge.loopexit:                             ; preds = %44
  %.pre = load i32, ptr %13, align 4, !tbaa !36
  br label %._crit_edge

._crit_edge:                                      ; preds = %._crit_edge.loopexit, %.preheader86
  %65 = phi i32 [ %40, %.preheader86 ], [ %.pre, %._crit_edge.loopexit ]
  %66 = phi i32 [ %41, %.preheader86 ], [ %63, %._crit_edge.loopexit ]
  %.2.lcssa = phi ptr [ %.16792, %.preheader86 ], [ %46, %._crit_edge.loopexit ]
  %67 = add nuw nsw i32 %.07091, 1
  %68 = icmp slt i32 %67, %65
  br i1 %68, label %.preheader86, label %._crit_edge93, !llvm.loop !258

._crit_edge93:                                    ; preds = %._crit_edge, %.preheader86.lr.ph, %.preheader87
  %.167.lcssa = phi ptr [ %.06698, %.preheader87 ], [ %.06698, %.preheader86.lr.ph ], [ %.2.lcssa, %._crit_edge ]
  %69 = getelementptr inbounds nuw i8, ptr %.167.lcssa, i64 1
  %70 = load i8, ptr %.167.lcssa, align 1, !tbaa !81
  %71 = getelementptr inbounds nuw i8, ptr %.06499, i64 1
  store i8 %70, ptr %.06499, align 1, !tbaa !81
  %72 = getelementptr inbounds nuw i8, ptr %.167.lcssa, i64 2
  %73 = load i8, ptr %69, align 1, !tbaa !81
  %74 = getelementptr inbounds nuw i8, ptr %.0100, i64 1
  store i8 %73, ptr %.0100, align 1, !tbaa !81
  %75 = add nuw i32 %.07296, 1
  %exitcond.not = icmp eq i32 %.07296, %10
  br i1 %exitcond.not, label %.loopexit, label %.preheader87, !llvm.loop !260

.preheader84:                                     ; preds = %.preheader85, %._crit_edge108
  %.1116 = phi ptr [ %108, %._crit_edge108 ], [ %28, %.preheader85 ]
  %.165115 = phi ptr [ %105, %._crit_edge108 ], [ %21, %.preheader85 ]
  %.3114 = phi ptr [ %106, %._crit_edge108 ], [ %2, %.preheader85 ]
  %.173112 = phi i32 [ %109, %._crit_edge108 ], [ 0, %.preheader85 ]
  %76 = load i32, ptr %13, align 4, !tbaa !36
  %77 = icmp sgt i32 %76, 0
  br i1 %77, label %.preheader.lr.ph, label %._crit_edge108

.preheader.lr.ph:                                 ; preds = %.preheader84
  %78 = load i32, ptr %8, align 4, !tbaa !36
  %79 = icmp sgt i32 %78, 0
  br i1 %79, label %.preheader, label %._crit_edge108

.preheader:                                       ; preds = %.preheader.lr.ph, %._crit_edge104
  %80 = phi i32 [ %99, %._crit_edge104 ], [ %76, %.preheader.lr.ph ]
  %81 = phi i32 [ %100, %._crit_edge104 ], [ %78, %.preheader.lr.ph ]
  %.4107 = phi ptr [ %.5.lcssa, %._crit_edge104 ], [ %.3114, %.preheader.lr.ph ]
  %.171106 = phi i32 [ %101, %._crit_edge104 ], [ 0, %.preheader.lr.ph ]
  %82 = icmp sgt i32 %81, 0
  br i1 %82, label %.lr.ph103, label %._crit_edge104

.lr.ph103:                                        ; preds = %.preheader
  %83 = add nsw i32 %.171106, %3
  br label %84

84:                                               ; preds = %.lr.ph103, %84
  %85 = phi i32 [ %81, %.lr.ph103 ], [ %97, %84 ]
  %.5102 = phi ptr [ %.4107, %.lr.ph103 ], [ %86, %84 ]
  %.169101 = phi i32 [ 0, %.lr.ph103 ], [ %96, %84 ]
  %86 = getelementptr inbounds nuw i8, ptr %.5102, i64 1
  %87 = load i8, ptr %.5102, align 1, !tbaa !81
  %88 = load ptr, ptr %1, align 8, !tbaa !101
  %89 = load i32, ptr %16, align 8, !tbaa !36
  %90 = mul nsw i32 %89, %83
  %91 = mul nsw i32 %85, %.173112
  %92 = add i32 %91, %.169101
  %93 = add i32 %92, %90
  %94 = sext i32 %93 to i64
  %95 = getelementptr inbounds i8, ptr %88, i64 %94
  store i8 %87, ptr %95, align 1, !tbaa !81
  %96 = add nuw nsw i32 %.169101, 1
  %97 = load i32, ptr %8, align 4, !tbaa !36
  %98 = icmp slt i32 %96, %97
  br i1 %98, label %84, label %._crit_edge104.loopexit, !llvm.loop !261

._crit_edge104.loopexit:                          ; preds = %84
  %.pre122 = load i32, ptr %13, align 4, !tbaa !36
  br label %._crit_edge104

._crit_edge104:                                   ; preds = %._crit_edge104.loopexit, %.preheader
  %99 = phi i32 [ %80, %.preheader ], [ %.pre122, %._crit_edge104.loopexit ]
  %100 = phi i32 [ %81, %.preheader ], [ %97, %._crit_edge104.loopexit ]
  %.5.lcssa = phi ptr [ %.4107, %.preheader ], [ %86, %._crit_edge104.loopexit ]
  %101 = add nuw nsw i32 %.171106, 1
  %102 = icmp slt i32 %101, %99
  br i1 %102, label %.preheader, label %._crit_edge108, !llvm.loop !262

._crit_edge108:                                   ; preds = %._crit_edge104, %.preheader.lr.ph, %.preheader84
  %.4.lcssa = phi ptr [ %.3114, %.preheader84 ], [ %.3114, %.preheader.lr.ph ], [ %.5.lcssa, %._crit_edge104 ]
  %103 = getelementptr inbounds nuw i8, ptr %.4.lcssa, i64 1
  %104 = load i8, ptr %.4.lcssa, align 1, !tbaa !81
  %105 = getelementptr inbounds nuw i8, ptr %.165115, i64 1
  store i8 %104, ptr %.165115, align 1, !tbaa !81
  %106 = getelementptr inbounds nuw i8, ptr %.4.lcssa, i64 2
  %107 = load i8, ptr %103, align 1, !tbaa !81
  %108 = getelementptr inbounds nuw i8, ptr %.1116, i64 1
  store i8 %107, ptr %.1116, align 1, !tbaa !81
  %109 = add nuw i32 %.173112, 1
  %exitcond121.not = icmp eq i32 %.173112, %10
  br i1 %exitcond121.not, label %.loopexit, label %.preheader84, !llvm.loop !263

.loopexit:                                        ; preds = %._crit_edge93, %._crit_edge108, %34, %.preheader85
  ret void
}